target datalayout = "e-m:e-p270:32:32-p271:32:32-p272:64:64-i64:64-i128:128-f80:128-n8:16:32:64-S128"
target triple = "x86_64-pc-linux-gnu"

%struct.ImVec2 = type { float, float }
%struct.ImGuiInputTextState = type <{ ptr, ptr, i32, i32, i32, [4 x i8], ptr, %struct.ImVector.34, %struct.ImVector.34, %struct.ImVector.34, i32, %struct.ImVec2, float, i8, i8, i8, i8, i32, i32, [4 x i8] }>
%struct.ImVector.34 = type { i32, i32, ptr }
%"struct.ImStb::STB_TexteditState" = type { i32, i32, i32, i8, i32, i8, i8, i8, i8, i8, i8, i8, float, %"struct.ImStb::StbUndoState" }
%"struct.ImStb::StbUndoState" = type { [99 x %"struct.ImStb::StbUndoRecord"], [999 x i8], i16, i16, i32, i32 }
%"struct.ImStb::StbUndoRecord" = type { i32, i32, i32, i32 }

; Function Attrs: mustprogress nounwind uwtable
define internal noundef signext i8 @_ZN5ImStbL20STB_TEXTEDIT_GETCHAREPK19ImGuiInputTextStatei(ptr noundef %0, i32 noundef %1) #4 {
  %3 = alloca ptr, align 8
  %4 = alloca i32, align 4
  store ptr %0, ptr %3, align 8, !tbaa !429
  store i32 %1, ptr %4, align 4, !tbaa !8
  %5 = load ptr, ptr %3, align 8, !tbaa !429
  %6 = getelementptr inbounds nuw %struct.ImGuiInputTextState, ptr %5, i32 0, i32 6
  %7 = load ptr, ptr %6, align 8, !tbaa !452
  %8 = load i32, ptr %4, align 4, !tbaa !8
  %9 = sext i32 %8 to i64
  %10 = getelementptr inbounds i8, ptr %7, i64 %9
  %11 = load i8, ptr %10, align 1, !tbaa !382
  ret i8 %11
}

; Function Attrs: mustprogress uwtable
define internal void @_ZN5ImStbL24stb_text_makeundo_insertEPNS_17STB_TexteditStateEii(ptr noundef %0, i32 noundef %1, i32 noundef %2) #9 {
  %4 = alloca ptr, align 8
  %5 = alloca i32, align 4
  %6 = alloca i32, align 4
  store ptr %0, ptr %4, align 8, !tbaa !512
  store i32 %1, ptr %5, align 4, !tbaa !8
  store i32 %2, ptr %6, align 4, !tbaa !8
  %7 = load ptr, ptr %4, align 8, !tbaa !512
  %8 = getelementptr inbounds nuw %"struct.ImStb::STB_TexteditState", ptr %7, i32 0, i32 13
  %9 = load i32, ptr %5, align 4, !tbaa !8
  %10 = load i32, ptr %6, align 4, !tbaa !8
  %11 = call noundef ptr @_ZN5ImStbL19stb_text_createundoEPNS_12StbUndoStateEiii(ptr noundef %8, i32 noundef %9, i32 noundef 0, i32 noundef %10)
  ret void
}

; Function Attrs: mustprogress nounwind uwtable
define internal void @_ZN5ImStbL24STB_TEXTEDIT_DELETECHARSEP19ImGuiInputTextStateii(ptr noundef %0, i32 noundef %1, i32 noundef %2) #4 {
  %4 = alloca ptr, align 8
  %5 = alloca i32, align 4
  %6 = alloca i32, align 4
  %7 = alloca ptr, align 8
  %8 = alloca ptr, align 8
  store ptr %0, ptr %4, align 8, !tbaa !429
  store i32 %1, ptr %5, align 4, !tbaa !8
  store i32 %2, ptr %6, align 4, !tbaa !8
  call void @llvm.lifetime.start.p0(i64 8, ptr %7) #17
  %9 = load ptr, ptr %4, align 8, !tbaa !429
  %10 = getelementptr inbounds nuw %struct.ImGuiInputTextState, ptr %9, i32 0, i32 7
  %11 = getelementptr inbounds nuw %struct.ImVector.34, ptr %10, i32 0, i32 2
  %12 = load ptr, ptr %11, align 8, !tbaa !438
  %13 = load i32, ptr %5, align 4, !tbaa !8
  %14 = sext i32 %13 to i64
  %15 = getelementptr inbounds i8, ptr %12, i64 %14
  store ptr %15, ptr %7, align 8, !tbaa !3
  call void @llvm.lifetime.start.p0(i64 8, ptr %8) #17
  %16 = load ptr, ptr %4, align 8, !tbaa !429
  %17 = getelementptr inbounds nuw %struct.ImGuiInputTextState, ptr %16, i32 0, i32 7
  %18 = getelementptr inbounds nuw %struct.ImVector.34, ptr %17, i32 0, i32 2
  %19 = load ptr, ptr %18, align 8, !tbaa !438
  %20 = load i32, ptr %5, align 4, !tbaa !8
  %21 = sext i32 %20 to i64
  %22 = getelementptr inbounds i8, ptr %19, i64 %21
  %23 = load i32, ptr %6, align 4, !tbaa !8
  %24 = sext i32 %23 to i64
  %25 = getelementptr inbounds i8, ptr %22, i64 %24
  store ptr %25, ptr %8, align 8, !tbaa !3
  %26 = load ptr, ptr %7, align 8, !tbaa !3
  %27 = load ptr, ptr %8, align 8, !tbaa !3
  %28 = load ptr, ptr %4, align 8, !tbaa !429
  %29 = getelementptr inbounds nuw %struct.ImGuiInputTextState, ptr %28, i32 0, i32 4
  %30 = load i32, ptr %29, align 8, !tbaa !439
  %31 = load i32, ptr %6, align 4, !tbaa !8
  %32 = sub nsw i32 %30, %31
  %33 = load i32, ptr %5, align 4, !tbaa !8
  %34 = sub nsw i32 %32, %33
  %35 = add nsw i32 %34, 1
  %36 = sext i32 %35 to i64
  call void @llvm.memmove.p0.p0.i64(ptr align 1 %26, ptr align 1 %27, i64 %36, i1 false)
  %37 = load ptr, ptr %4, align 8, !tbaa !429
  %38 = getelementptr inbounds nuw %struct.ImGuiInputTextState, ptr %37, i32 0, i32 15
  store i8 1, ptr %38, align 2, !tbaa !453
  %39 = load i32, ptr %6, align 4, !tbaa !8
  %40 = load ptr, ptr %4, align 8, !tbaa !429
  %41 = getelementptr inbounds nuw %struct.ImGuiInputTextState, ptr %40, i32 0, i32 4
  %42 = load i32, ptr %41, align 8, !tbaa !439
  %43 = sub nsw i32 %42, %39
  store i32 %43, ptr %41, align 8, !tbaa !439
  call void @llvm.lifetime.end.p0(i64 8, ptr %8) #17
  call void @llvm.lifetime.end.p0(i64 8, ptr %7) #17
  ret void
}

; Function Attrs: mustprogress uwtable
define internal void @_ZN5ImStbL25stb_text_makeundo_replaceEP19ImGuiInputTextStatePNS_17STB_TexteditStateEiii(ptr noundef %0, ptr noundef %1, i32 noundef %2, i32 noundef %3, i32 noundef %4) #9 {
  %6 = alloca ptr, align 8
  %7 = alloca ptr, align 8
  %8 = alloca i32, align 4
  %9 = alloca i32, align 4
  %10 = alloca i32, align 4
  %11 = alloca i32, align 4
  %12 = alloca ptr, align 8
  store ptr %0, ptr %6, align 8, !tbaa !429
  store ptr %1, ptr %7, align 8, !tbaa !512
  store i32 %2, ptr %8, align 4, !tbaa !8
  store i32 %3, ptr %9, align 4, !tbaa !8
  store i32 %4, ptr %10, align 4, !tbaa !8
  call void @llvm.lifetime.start.p0(i64 4, ptr %11) #17
  call void @llvm.lifetime.start.p0(i64 8, ptr %12) #17
  %13 = load ptr, ptr %7, align 8, !tbaa !512
  %14 = getelementptr inbounds nuw %"struct.ImStb::STB_TexteditState", ptr %13, i32 0, i32 13
  %15 = load i32, ptr %8, align 4, !tbaa !8
  %16 = load i32, ptr %9, align 4, !tbaa !8
  %17 = load i32, ptr %10, align 4, !tbaa !8
  %18 = call noundef ptr @_ZN5ImStbL19stb_text_createundoEPNS_12StbUndoStateEiii(ptr noundef %14, i32 noundef %15, i32 noundef %16, i32 noundef %17)
  store ptr %18, ptr %12, align 8, !tbaa !3
  %19 = load ptr, ptr %12, align 8, !tbaa !3
  %20 = icmp ne ptr %19, null
  br i1 %20, label %21, label %40

21:                                               ; preds = %5
  store i32 0, ptr %11, align 4, !tbaa !8
  br label %22

22:                                               ; preds = %36, %21
  %23 = load i32, ptr %11, align 4, !tbaa !8
  %24 = load i32, ptr %9, align 4, !tbaa !8
  %25 = icmp slt i32 %23, %24
  br i1 %25, label %26, label %39

26:                                               ; preds = %22
  %27 = load ptr, ptr %6, align 8, !tbaa !429
  %28 = load i32, ptr %8, align 4, !tbaa !8
  %29 = load i32, ptr %11, align 4, !tbaa !8
  %30 = add nsw i32 %28, %29
  %31 = call noundef signext i8 @_ZN5ImStbL20STB_TEXTEDIT_GETCHAREPK19ImGuiInputTextStatei(ptr noundef %27, i32 noundef %30)
  %32 = load ptr, ptr %12, align 8, !tbaa !3
  %33 = load i32, ptr %11, align 4, !tbaa !8
  %34 = sext i32 %33 to i64
  %35 = getelementptr inbounds i8, ptr %32, i64 %34
  store i8 %31, ptr %35, align 1, !tbaa !382
  br label %36

36:                                               ; preds = %26
  %37 = load i32, ptr %11, align 4, !tbaa !8
  %38 = add nsw i32 %37, 1
  store i32 %38, ptr %11, align 4, !tbaa !8
  br label %22, !llvm.loop !957

39:                                               ; preds = %22
  br label %40

40:                                               ; preds = %39, %5
  call void @llvm.lifetime.end.p0(i64 8, ptr %12) #17
  call void @llvm.lifetime.end.p0(i64 4, ptr %11) #17
  ret void
}

; Function Attrs: mustprogress nounwind uwtable
define internal noundef i32 @_ZN5ImStbL22STB_TEXTEDIT_STRINGLENEPK19ImGuiInputTextState(ptr noundef %0) #4 {
  %2 = alloca ptr, align 8
  store ptr %0, ptr %2, align 8, !tbaa !429
  %3 = load ptr, ptr %2, align 8, !tbaa !429
  %4 = getelementptr inbounds nuw %struct.ImGuiInputTextState, ptr %3, i32 0, i32 4
  %5 = load i32, ptr %4, align 8, !tbaa !439
  ret i32 %5
}

; Function Attrs: mustprogress nounwind uwtable
define void @_ZN19ImGuiInputTextState15CursorAnimResetEv(ptr noundef nonnull align 8 dereferenceable(116) %0) #4 align 2 {
  %2 = alloca ptr, align 8
  store ptr %0, ptr %2, align 8, !tbaa !429
  %3 = load ptr, ptr %2, align 8
  %4 = getelementptr inbounds nuw %struct.ImGuiInputTextState, ptr %3, i32 0, i32 12
  store float 0xBFD3333340000000, ptr %4, align 4, !tbaa !500
  ret void
}

; Function Attrs: mustprogress uwtable
define internal void @_ZN5ImStbL17stb_textedit_textEP19ImGuiInputTextStatePNS_17STB_TexteditStateEPKci(ptr noundef %0, ptr noundef %1, ptr noundef %2, i32 noundef %3) #9 {
  %5 = alloca ptr, align 8
  %6 = alloca ptr, align 8
  %7 = alloca ptr, align 8
  %8 = alloca i32, align 4
  store ptr %0, ptr %5, align 8, !tbaa !429
  store ptr %1, ptr %6, align 8, !tbaa !512
  store ptr %2, ptr %7, align 8, !tbaa !3
  store i32 %3, ptr %8, align 4, !tbaa !8
  %9 = load ptr, ptr %7, align 8, !tbaa !3
  %10 = getelementptr inbounds i8, ptr %9, i64 0
  %11 = load i8, ptr %10, align 1, !tbaa !382
  %12 = sext i8 %11 to i32
  %13 = icmp eq i32 %12, 10
  br i1 %13, label %14, label %20

14:                                               ; preds = %4
  %15 = load ptr, ptr %6, align 8, !tbaa !512
  %16 = getelementptr inbounds nuw %"struct.ImStb::STB_TexteditState", ptr %15, i32 0, i32 8
  %17 = load i8, ptr %16, align 1, !tbaa !435
  %18 = icmp ne i8 %17, 0
  br i1 %18, label %19, label %20

19:                                               ; preds = %14
  br label %90

20:                                               ; preds = %14, %4
  %21 = load ptr, ptr %6, align 8, !tbaa !512
  %22 = getelementptr inbounds nuw %"struct.ImStb::STB_TexteditState", ptr %21, i32 0, i32 3
  %23 = load i8, ptr %22, align 4, !tbaa !449
  %24 = icmp ne i8 %23, 0
  br i1 %24, label %25, label %66

25:                                               ; preds = %20
  %26 = load ptr, ptr %6, align 8, !tbaa !512
  %27 = getelementptr inbounds nuw %"struct.ImStb::STB_TexteditState", ptr %26, i32 0, i32 1
  %28 = load i32, ptr %27, align 4, !tbaa !441
  %29 = load ptr, ptr %6, align 8, !tbaa !512
  %30 = getelementptr inbounds nuw %"struct.ImStb::STB_TexteditState", ptr %29, i32 0, i32 2
  %31 = load i32, ptr %30, align 4, !tbaa !443
  %32 = icmp ne i32 %28, %31
  br i1 %32, label %66, label %33

33:                                               ; preds = %25
  %34 = load ptr, ptr %6, align 8, !tbaa !512
  %35 = getelementptr inbounds nuw %"struct.ImStb::STB_TexteditState", ptr %34, i32 0, i32 0
  %36 = load i32, ptr %35, align 4, !tbaa !444
  %37 = load ptr, ptr %5, align 8, !tbaa !429
  %38 = call noundef i32 @_ZN5ImStbL22STB_TEXTEDIT_STRINGLENEPK19ImGuiInputTextState(ptr noundef %37)
  %39 = icmp slt i32 %36, %38
  br i1 %39, label %40, label %66

40:                                               ; preds = %33
  %41 = load ptr, ptr %5, align 8, !tbaa !429
  %42 = load ptr, ptr %6, align 8, !tbaa !512
  %43 = load ptr, ptr %6, align 8, !tbaa !512
  %44 = getelementptr inbounds nuw %"struct.ImStb::STB_TexteditState", ptr %43, i32 0, i32 0
  %45 = load i32, ptr %44, align 4, !tbaa !444
  call void @_ZN5ImStbL25stb_text_makeundo_replaceEP19ImGuiInputTextStatePNS_17STB_TexteditStateEiii(ptr noundef %41, ptr noundef %42, i32 noundef %45, i32 noundef 1, i32 noundef 1)
  %46 = load ptr, ptr %5, align 8, !tbaa !429
  %47 = load ptr, ptr %6, align 8, !tbaa !512
  %48 = getelementptr inbounds nuw %"struct.ImStb::STB_TexteditState", ptr %47, i32 0, i32 0
  %49 = load i32, ptr %48, align 4, !tbaa !444
  call void @_ZN5ImStbL24STB_TEXTEDIT_DELETECHARSEP19ImGuiInputTextStateii(ptr noundef %46, i32 noundef %49, i32 noundef 1)
  %50 = load ptr, ptr %5, align 8, !tbaa !429
  %51 = load ptr, ptr %6, align 8, !tbaa !512
  %52 = getelementptr inbounds nuw %"struct.ImStb::STB_TexteditState", ptr %51, i32 0, i32 0
  %53 = load i32, ptr %52, align 4, !tbaa !444
  %54 = load ptr, ptr %7, align 8, !tbaa !3
  %55 = load i32, ptr %8, align 4, !tbaa !8
  %56 = call noundef zeroext i1 @_ZN5ImStbL24STB_TEXTEDIT_INSERTCHARSEP19ImGuiInputTextStateiPKci(ptr noundef %50, i32 noundef %53, ptr noundef %54, i32 noundef %55)
  br i1 %56, label %57, label %65

57:                                               ; preds = %40
  %58 = load i32, ptr %8, align 4, !tbaa !8
  %59 = load ptr, ptr %6, align 8, !tbaa !512
  %60 = getelementptr inbounds nuw %"struct.ImStb::STB_TexteditState", ptr %59, i32 0, i32 0
  %61 = load i32, ptr %60, align 4, !tbaa !444
  %62 = add nsw i32 %61, %58
  store i32 %62, ptr %60, align 4, !tbaa !444
  %63 = load ptr, ptr %6, align 8, !tbaa !512
  %64 = getelementptr inbounds nuw %"struct.ImStb::STB_TexteditState", ptr %63, i32 0, i32 7
  store i8 0, ptr %64, align 2, !tbaa !513
  br label %65

65:                                               ; preds = %57, %40
  br label %90

66:                                               ; preds = %33, %25, %20
  %67 = load ptr, ptr %5, align 8, !tbaa !429
  %68 = load ptr, ptr %6, align 8, !tbaa !512
  call void @_ZN5ImStbL29stb_textedit_delete_selectionEP19ImGuiInputTextStatePNS_17STB_TexteditStateE(ptr noundef %67, ptr noundef %68)
  %69 = load ptr, ptr %5, align 8, !tbaa !429
  %70 = load ptr, ptr %6, align 8, !tbaa !512
  %71 = getelementptr inbounds nuw %"struct.ImStb::STB_TexteditState", ptr %70, i32 0, i32 0
  %72 = load i32, ptr %71, align 4, !tbaa !444
  %73 = load ptr, ptr %7, align 8, !tbaa !3
  %74 = load i32, ptr %8, align 4, !tbaa !8
  %75 = call noundef zeroext i1 @_ZN5ImStbL24STB_TEXTEDIT_INSERTCHARSEP19ImGuiInputTextStateiPKci(ptr noundef %69, i32 noundef %72, ptr noundef %73, i32 noundef %74)
  br i1 %75, label %76, label %89

76:                                               ; preds = %66
  %77 = load ptr, ptr %6, align 8, !tbaa !512
  %78 = load ptr, ptr %6, align 8, !tbaa !512
  %79 = getelementptr inbounds nuw %"struct.ImStb::STB_TexteditState", ptr %78, i32 0, i32 0
  %80 = load i32, ptr %79, align 4, !tbaa !444
  %81 = load i32, ptr %8, align 4, !tbaa !8
  call void @_ZN5ImStbL24stb_text_makeundo_insertEPNS_17STB_TexteditStateEii(ptr noundef %77, i32 noundef %80, i32 noundef %81)
  %82 = load i32, ptr %8, align 4, !tbaa !8
  %83 = load ptr, ptr %6, align 8, !tbaa !512
  %84 = getelementptr inbounds nuw %"struct.ImStb::STB_TexteditState", ptr %83, i32 0, i32 0
  %85 = load i32, ptr %84, align 4, !tbaa !444
  %86 = add nsw i32 %85, %82
  store i32 %86, ptr %84, align 4, !tbaa !444
  %87 = load ptr, ptr %6, align 8, !tbaa !512
  %88 = getelementptr inbounds nuw %"struct.ImStb::STB_TexteditState", ptr %87, i32 0, i32 7
  store i8 0, ptr %88, align 2, !tbaa !513
  br label %89

89:                                               ; preds = %76, %66
  br label %90

90:                                               ; preds = %19, %89, %65
  ret void
}

; Function Attrs: mustprogress uwtable
define void @_ZN19ImGuiInputTextState13OnCharPressedEj(ptr noundef nonnull align 8 dereferenceable(116) %0, i32 noundef %1) #9 align 2 {
  %3 = alloca ptr, align 8
  %4 = alloca i32, align 4
  %5 = alloca [5 x i8], align 1
  store ptr %0, ptr %3, align 8, !tbaa !429
  store i32 %1, ptr %4, align 4, !tbaa !8
  %6 = load ptr, ptr %3, align 8
  call void @llvm.lifetime.start.p0(i64 5, ptr %5) #17
  %7 = getelementptr inbounds [5 x i8], ptr %5, i64 0, i64 0
  %8 = load i32, ptr %4, align 4, !tbaa !8
  %9 = call noundef ptr @_Z16ImTextCharToUtf8Pcj(ptr noundef %7, i32 noundef %8)
  %10 = getelementptr inbounds nuw %struct.ImGuiInputTextState, ptr %6, i32 0, i32 1
  %11 = load ptr, ptr %10, align 8, !tbaa !434
  %12 = getelementptr inbounds [5 x i8], ptr %5, i64 0, i64 0
  %13 = getelementptr inbounds [5 x i8], ptr %5, i64 0, i64 0
  %14 = call i64 @strlen(ptr noundef %13) #18
  %15 = trunc i64 %14 to i32
  call void @_ZN5ImStbL17stb_textedit_textEP19ImGuiInputTextStatePNS_17STB_TexteditStateEPKci(ptr noundef %6, ptr noundef %11, ptr noundef %12, i32 noundef %15)
  %16 = getelementptr inbounds nuw %struct.ImGuiInputTextState, ptr %6, i32 0, i32 13
  store i8 1, ptr %16, align 8, !tbaa !461
  call void @_ZN19ImGuiInputTextState15CursorAnimResetEv(ptr noundef nonnull align 8 dereferenceable(116) %6)
  call void @llvm.lifetime.end.p0(i64 5, ptr %5) #17
  ret void
}