; Function Attrs: mustprogress uwtable
define void @_ZN19ImGuiInputTextState13OnCharPressedEj(ptr noundef nonnull align 8 captures(none) dereferenceable(116) %0, i32 noundef %1) local_unnamed_addr #6 align 2 {
  %3 = alloca [5 x i8], align 1
  call void @llvm.lifetime.start.p0(i64 5, ptr nonnull %3) #44
  %4 = call noundef ptr @_Z16ImTextCharToUtf8Pcj(ptr noundef nonnull %3, i32 noundef %1)
  %5 = getelementptr inbounds nuw i8, ptr %0, i64 8
  %6 = load ptr, ptr %5, align 8, !tbaa !379
  %7 = call i64 @strlen(ptr noundef nonnull dereferenceable(1) %3) #43
  %8 = trunc i64 %7 to i32
  %9 = load i8, ptr %3, align 1, !tbaa !341
  %10 = icmp eq i8 %9, 10
  br i1 %10, label %11, label %14

11:                                               ; preds = %2
  %12 = getelementptr inbounds nuw i8, ptr %6, i64 23
  %13 = load i8, ptr %12, align 1, !tbaa !380
  %.not.i = icmp eq i8 %13, 0
  br i1 %.not.i, label %14, label %_ZN5ImStbL17stb_textedit_textEP19ImGuiInputTextStatePNS_17STB_TexteditStateEPKci.exit

14:                                               ; preds = %11, %2
  %15 = getelementptr inbounds nuw i8, ptr %6, i64 12
  %16 = load i8, ptr %15, align 4, !tbaa !408
  %.not30.i = icmp eq i8 %16, 0
  br i1 %.not30.i, label %47, label %17

17:                                               ; preds = %14
  %18 = getelementptr inbounds nuw i8, ptr %6, i64 4
  %19 = load i32, ptr %18, align 4, !tbaa !394
  %20 = getelementptr inbounds nuw i8, ptr %6, i64 8
  %21 = load i32, ptr %20, align 4, !tbaa !395
  %.not31.i = icmp eq i32 %19, %21
  br i1 %.not31.i, label %22, label %47

22:                                               ; preds = %17
  %23 = load i32, ptr %6, align 4, !tbaa !393
  %24 = getelementptr inbounds nuw i8, ptr %0, i64 24
  %.val.i = load i32, ptr %24, align 8, !tbaa !384
  %25 = icmp slt i32 %23, %.val.i
  br i1 %25, label %26, label %47

26:                                               ; preds = %22
  %27 = getelementptr inbounds nuw i8, ptr %6, i64 32
  %28 = call fastcc noundef ptr @_ZN5ImStbL19stb_text_createundoEPNS_12StbUndoStateEiii(ptr noundef nonnull %27, i32 noundef %23, i32 noundef 1, i32 noundef 1)
  %.not.i.not.i = icmp eq ptr %28, null
  br i1 %.not.i.not.i, label %_ZN5ImStbL25stb_text_makeundo_replaceEP19ImGuiInputTextStatePNS_17STB_TexteditStateEiii.exit.i, label %.lr.ph.i.i

.lr.ph.i.i:                                       ; preds = %26
  %29 = getelementptr inbounds nuw i8, ptr %0, i64 32
  %30 = sext i32 %23 to i64
  %.val.i.i = load ptr, ptr %29, align 8, !tbaa !414
  %31 = getelementptr i8, ptr %.val.i.i, i64 %30
  %32 = load i8, ptr %31, align 1, !tbaa !341
  store i8 %32, ptr %28, align 1, !tbaa !341
  br label %_ZN5ImStbL25stb_text_makeundo_replaceEP19ImGuiInputTextStatePNS_17STB_TexteditStateEiii.exit.i

_ZN5ImStbL25stb_text_makeundo_replaceEP19ImGuiInputTextStatePNS_17STB_TexteditStateEiii.exit.i: ; preds = %.lr.ph.i.i, %26
  %33 = load i32, ptr %6, align 4, !tbaa !393
  %34 = getelementptr inbounds nuw i8, ptr %0, i64 48
  %35 = load ptr, ptr %34, align 8, !tbaa !383
  %36 = sext i32 %33 to i64
  %37 = getelementptr inbounds i8, ptr %35, i64 %36
  %38 = getelementptr inbounds nuw i8, ptr %37, i64 1
  %39 = load i32, ptr %24, align 8, !tbaa !384
  %40 = sub i32 %39, %33
  %41 = sext i32 %40 to i64
  call void @llvm.memmove.p0.p0.i64(ptr align 1 %37, ptr nonnull align 1 %38, i64 %41, i1 false)
  %42 = getelementptr inbounds nuw i8, ptr %0, i64 106
  store i8 1, ptr %42, align 2, !tbaa !423
  %43 = load i32, ptr %24, align 8, !tbaa !384
  %44 = add nsw i32 %43, -1
  store i32 %44, ptr %24, align 8, !tbaa !384
  %45 = load i32, ptr %6, align 4, !tbaa !393
  %46 = call fastcc noundef zeroext i1 @_ZN5ImStbL24STB_TEXTEDIT_INSERTCHARSEP19ImGuiInputTextStateiPKci(ptr noundef nonnull %0, i32 noundef %45, ptr noundef nonnull readonly %3, i32 noundef %8)
  br i1 %46, label %.sink.split.i, label %_ZN5ImStbL17stb_textedit_textEP19ImGuiInputTextStatePNS_17STB_TexteditStateEPKci.exit

47:                                               ; preds = %22, %17, %14
  call fastcc void @_ZN5ImStbL29stb_textedit_delete_selectionEP19ImGuiInputTextStatePNS_17STB_TexteditStateE(ptr noundef nonnull %0, ptr noundef nonnull %6)
  %48 = load i32, ptr %6, align 4, !tbaa !393
  %49 = call fastcc noundef zeroext i1 @_ZN5ImStbL24STB_TEXTEDIT_INSERTCHARSEP19ImGuiInputTextStateiPKci(ptr noundef nonnull %0, i32 noundef %48, ptr noundef nonnull readonly %3, i32 noundef %8)
  br i1 %49, label %50, label %_ZN5ImStbL17stb_textedit_textEP19ImGuiInputTextStatePNS_17STB_TexteditStateEPKci.exit

50:                                               ; preds = %47
  %51 = load i32, ptr %6, align 4, !tbaa !393
  %52 = getelementptr inbounds nuw i8, ptr %6, i64 32
  %53 = call fastcc noundef ptr @_ZN5ImStbL19stb_text_createundoEPNS_12StbUndoStateEiii(ptr noundef nonnull %52, i32 noundef %51, i32 noundef 0, i32 noundef %8)
  br label %.sink.split.i

.sink.split.i:                                    ; preds = %50, %_ZN5ImStbL25stb_text_makeundo_replaceEP19ImGuiInputTextStatePNS_17STB_TexteditStateEiii.exit.i
  %54 = load i32, ptr %6, align 4, !tbaa !393
  %55 = add nsw i32 %54, %8
  store i32 %55, ptr %6, align 4, !tbaa !393
  %56 = getelementptr inbounds nuw i8, ptr %6, i64 22
  store i8 0, ptr %56, align 2, !tbaa !404
  br label %_ZN5ImStbL17stb_textedit_textEP19ImGuiInputTextStatePNS_17STB_TexteditStateEPKci.exit

_ZN5ImStbL17stb_textedit_textEP19ImGuiInputTextStatePNS_17STB_TexteditStateEPKci.exit: ; preds = %11, %_ZN5ImStbL25stb_text_makeundo_replaceEP19ImGuiInputTextStatePNS_17STB_TexteditStateEiii.exit.i, %47, %.sink.split.i
  %57 = getelementptr inbounds nuw i8, ptr %0, i64 104
  store i8 1, ptr %57, align 8, !tbaa !431
  %58 = getelementptr inbounds nuw i8, ptr %0, i64 100
  store float 0xBFD3333340000000, ptr %58, align 4, !tbaa !396
  call void @llvm.lifetime.end.p0(i64 5, ptr nonnull %3) #44
  ret void
}